; Function Attrs: mustprogress uwtable
define noundef i32 @_ZN6icu_7517UCharsTrieBuilder17writeElementUnitsEiii(ptr noundef nonnull align 8 dereferenceable(112) %this, i32 noundef %i, i32 noundef %unitIndex, i32 noundef %length) unnamed_addr #0 align 2 personality ptr @__gxx_personality_v0 {
entry:
  %ref.tmp = alloca %"class.icu_75::UnicodeString", align 8
  %elements = getelementptr inbounds i8, ptr %this, i64 80
  %0 = load ptr, ptr %elements, align 8
  %idxprom = sext i32 %i to i64
  %arrayidx = getelementptr inbounds %"class.icu_75::UCharsTrieElement", ptr %0, i64 %idxprom
  %strings = getelementptr inbounds i8, ptr %this, i64 16
  %1 = load i32, ptr %arrayidx, align 4, !noalias !26
  %fUnion.i.i.i.i.i = getelementptr inbounds i8, ptr %this, i64 24
  %2 = load i16, ptr %fUnion.i.i.i.i.i, align 8, !noalias !26
  %cmp.i.i.i.i.i = icmp slt i16 %2, 0
  %3 = ashr i16 %2, 5
  %shr.i.i.i.i.i = sext i16 %3 to i32
  %fLength.i.i.i.i = getelementptr inbounds i8, ptr %this, i64 28
  %4 = load i32, ptr %fLength.i.i.i.i, align 4, !noalias !26
  %cond.i.i.i.i = select i1 %cmp.i.i.i.i.i, i32 %4, i32 %shr.i.i.i.i.i
  %cmp.i.i.i = icmp ugt i32 %cond.i.i.i.i, %1
  br i1 %cmp.i.i.i, label %if.then.i.i.i, label %_ZNK6icu_7517UCharsTrieElement9getStringERKNS_13UnicodeStringE.exit

if.then.i.i.i:                                    ; preds = %entry
  %5 = and i16 %2, 2
  %tobool.not.i.i.i.i = icmp eq i16 %5, 0
  %fBuffer.i.i.i.i = getelementptr inbounds i8, ptr %this, i64 26
  %fArray.i.i.i.i = getelementptr inbounds i8, ptr %this, i64 40
  %6 = load ptr, ptr %fArray.i.i.i.i, align 8, !noalias !26
  %cond.i2.i.i.i = select i1 %tobool.not.i.i.i.i, ptr %6, ptr %fBuffer.i.i.i.i
  %idxprom.i.i.i = sext i32 %1 to i64
  %arrayidx.i.i.i = getelementptr inbounds i16, ptr %cond.i2.i.i.i, i64 %idxprom.i.i.i
  %7 = load i16, ptr %arrayidx.i.i.i, align 2, !noalias !26
  %8 = zext i16 %7 to i32
  br label %_ZNK6icu_7517UCharsTrieElement9getStringERKNS_13UnicodeStringE.exit

_ZNK6icu_7517UCharsTrieElement9getStringERKNS_13UnicodeStringE.exit: ; preds = %entry, %if.then.i.i.i
  %retval.0.i.i.i = phi i32 [ %8, %if.then.i.i.i ], [ 65535, %entry ]
  %add.i = add nsw i32 %1, 1
  call void @_ZNK6icu_7513UnicodeString13tempSubStringEii(ptr nonnull sret(%"class.icu_75::UnicodeString") align 8 %ref.tmp, ptr noundef nonnull align 8 dereferenceable(64) %strings, i32 noundef %add.i, i32 noundef %retval.0.i.i.i)
  %fUnion.i = getelementptr inbounds i8, ptr %ref.tmp, i64 8
  %9 = load i16, ptr %fUnion.i, align 8
  %conv1.i = zext i16 %9 to i32
  %and.i = and i32 %conv1.i, 17
  %tobool.not.i = icmp eq i32 %and.i, 0
  br i1 %tobool.not.i, label %if.else.i, label %_ZNK6icu_7513UnicodeString9getBufferEv.exit

if.else.i:                                        ; preds = %_ZNK6icu_7517UCharsTrieElement9getStringERKNS_13UnicodeStringE.exit
  %and5.i = and i32 %conv1.i, 2
  %tobool6.not.i = icmp eq i32 %and5.i, 0
  br i1 %tobool6.not.i, label %if.else9.i, label %if.then7.i

if.then7.i:                                       ; preds = %if.else.i
  %fBuffer.i = getelementptr inbounds i8, ptr %ref.tmp, i64 10
  br label %_ZNK6icu_7513UnicodeString9getBufferEv.exit

if.else9.i:                                       ; preds = %if.else.i
  %fArray.i = getelementptr inbounds i8, ptr %ref.tmp, i64 24
  %10 = load ptr, ptr %fArray.i, align 8
  br label %_ZNK6icu_7513UnicodeString9getBufferEv.exit

_ZNK6icu_7513UnicodeString9getBufferEv.exit:      ; preds = %_ZNK6icu_7517UCharsTrieElement9getStringERKNS_13UnicodeStringE.exit, %if.then7.i, %if.else9.i
  %retval.0.i = phi ptr [ %fBuffer.i, %if.then7.i ], [ %10, %if.else9.i ], [ null, %_ZNK6icu_7517UCharsTrieElement9getStringERKNS_13UnicodeStringE.exit ]
  %idx.ext = sext i32 %unitIndex to i64
  %add.ptr = getelementptr inbounds i16, ptr %retval.0.i, i64 %idx.ext
  %call3 = invoke noundef i32 @_ZN6icu_7517UCharsTrieBuilder5writeEPKDsi(ptr noundef nonnull align 8 dereferenceable(112) %this, ptr noundef %add.ptr, i32 noundef %length)
          to label %invoke.cont2 unwind label %lpad

invoke.cont2:                                     ; preds = %_ZNK6icu_7513UnicodeString9getBufferEv.exit
  call void @_ZN6icu_7513UnicodeStringD1Ev(ptr noundef nonnull align 8 dereferenceable(64) %ref.tmp) #11
  ret i32 %call3

lpad:                                             ; preds = %_ZNK6icu_7513UnicodeString9getBufferEv.exit
  %11 = landingpad { ptr, i32 }
          cleanup
  call void @_ZN6icu_7513UnicodeStringD1Ev(ptr noundef nonnull align 8 dereferenceable(64) %ref.tmp) #11
  resume { ptr, i32 } %11
}